ccopy_reg
_reconstructor
p1
(cpsychopy.data
ExperimentHandler
p2
c__builtin__
object
p3
NtRp4
(dp5
S'originPath'
p6
V/Users/nope/Desktop/psychopy_sample_lennart/sample_experiment.psyexp
p7
sS'dataFileName'
p8
V/Users/nope/Desktop/psychopy_sample_lennart/data/1995_sample_experiment_2016_Dec_08_1328
p9
sS'runtimeInfo'
p10
NsS'name'
p11
Vsample_experiment
p12
sS'dataNames'
p13
(lp14
S'key_instruction.keys'
p15
aS'key_instruction.rt'
p16
aS'key_task.keys'
p17
aS'key_task.rt'
p18
asS'autoLog'
p19
I01
sS'extraInfo'
p20
(dp21
S'date'
p22
V2016_Dec_08_1328
p23
sS'frameRate'
p24
cnumpy.core.multiarray
scalar
p25
(cnumpy
dtype
p26
(S'f8'
I0
I1
tRp27
(I3
S'<'
NNNI-1
I-1
I0
tbS'\xfa,B\x8e\xf9/N@'
tRp28
sS'expName'
p29
g12
sS'session'
p30
V001
p31
sS'participant'
p32
V1995
p33
ssS'loopsUnfinished'
p34
(lp35
g1
(cpsychopy.data
TrialHandler
p36
g3
NtRp37
(dp38
S'origin'
p39
NsS'thisTrial'
p40
g1
(cpsychopy.data
TrialType
p41
c__builtin__
dict
p42
(dp43
Vstim_name
p44
NsVstim_nr
p45
I6
sVcorrAns_odor
p46
Vstrawberry
p47
sVcorrAns_pic
p48
g47
sVcongruent
p49
I1
sVodor_channel
p50
I2
sVpic_file
p51
Vstrawberry.jpg
p52
sVpic_name
p53
g47
sVodor_name
p54
g47
stRp55
sS'_exp'
p56
I4474016912
sg11
S'trials'
p57
sg6
I-1
sS'thisRepN'
p58
I0
sg19
I01
sg20
g21
sS'data'
p59
g1
(cpsychopy.data
DataHandler
p60
g42
(dp61
S'ran'
p62
cnumpy.ma.core
_mareconstruct
p63
(cnumpy.ma.core
MaskedArray
p64
cnumpy
ndarray
p65
(I0
tp66
S'b'
tRp67
(I1
(I16
I1
tg26
(S'f4'
I0
I1
tRp68
(I3
S'<'
NNNI-1
I-1
I0
tbI00
S'\x00\x00\x00\x00\x00\x00\x00\x00\x00\x00\x00\x00\x00\x00\x00\x00\x00\x00\x00\x00\x00\x00\x80?\x00\x00\x00\x00\x00\x00\x00\x00\x00\x00\x00\x00\x00\x00\x00\x00\x00\x00\x00\x00\x00\x00\x00\x00\x00\x00\x00\x00\x00\x00\x00\x00\x00\x00\x00\x00\x00\x00\x00\x00'
S'\x00\x00\x00\x00\x00\x00\x00\x00\x00\x00\x00\x00\x00\x00\x00\x00'
NtbsS'order'
p69
g63
(g64
g65
g66
S'b'
tRp70
(I1
(I16
I1
tg68
I00
S'\x00\x00\x00\x00\x00\x00\x00\x00\x00\x00\x00\x00\x00\x00\x00\x00\x00\x00\x00\x00\x00\x00\x00\x00\x00\x00\x00\x00\x00\x00\x00\x00\x00\x00\x00\x00\x00\x00\x00\x00\x00\x00\x00\x00\x00\x00\x00\x00\x00\x00\x00\x00\x00\x00\x00\x00\x00\x00\x00\x00\x00\x00\x00\x00'
S'\x01\x01\x01\x01\x01\x00\x01\x01\x01\x01\x01\x01\x01\x01\x01\x01'
Ntbsg17
cnumpy.core.multiarray
_reconstruct
p71
(g65
(I0
tS'b'
tRp72
(I1
(I16
I1
tg26
(S'O8'
I0
I1
tRp73
(I3
S'|'
NNNI-1
I-1
I63
tbI00
(lp74
S'--'
p75
aS'--'
p76
aS'--'
p77
aS'--'
p78
aS'--'
p79
aS'2'
aS'--'
p80
aS'--'
p81
aS'--'
p82
aS'--'
p83
aS'--'
p84
aS'--'
p85
aS'--'
p86
aS'--'
p87
aS'--'
p88
aS'--'
p89
atbsg18
g63
(g64
g65
g66
S'b'
tRp90
(I1
(I16
I1
tg68
I00
S'\x00\x00\x00\x00\x00\x00\x00\x00\x00\x00\x00\x00\x00\x00\x00\x00\x00\x00\x00\x00\xa1.N@\x00\x00\x00\x00\x00\x00\x00\x00\x00\x00\x00\x00\x00\x00\x00\x00\x00\x00\x00\x00\x00\x00\x00\x00\x00\x00\x00\x00\x00\x00\x00\x00\x00\x00\x00\x00\x00\x00\x00\x00'
S'\x01\x01\x01\x01\x01\x00\x01\x01\x01\x01\x01\x01\x01\x01\x01\x01'
NtbstRp91
(dp92
S'isNumeric'
p93
(dp94
g62
I01
sg69
I01
sg17
I00
sg18
I01
ssg57
g37
sS'dataTypes'
p95
(lp96
g62
ag69
ag17
ag18
asS'dataShape'
p97
(lp98
I16
aI1
asbsS'method'
p99
S'random'
p100
sS'sequenceIndices'
p101
g71
(g65
(I0
tS'b'
tRp102
(I1
(I16
I1
tg26
(S'i8'
I0
I1
tRp103
(I3
S'<'
NNNI-1
I-1
I0
tbI00
S'\x05\x00\x00\x00\x00\x00\x00\x00\n\x00\x00\x00\x00\x00\x00\x00\x0c\x00\x00\x00\x00\x00\x00\x00\x03\x00\x00\x00\x00\x00\x00\x00\x0b\x00\x00\x00\x00\x00\x00\x00\x0f\x00\x00\x00\x00\x00\x00\x00\r\x00\x00\x00\x00\x00\x00\x00\x06\x00\x00\x00\x00\x00\x00\x00\t\x00\x00\x00\x00\x00\x00\x00\x07\x00\x00\x00\x00\x00\x00\x00\x00\x00\x00\x00\x00\x00\x00\x00\x0e\x00\x00\x00\x00\x00\x00\x00\x08\x00\x00\x00\x00\x00\x00\x00\x02\x00\x00\x00\x00\x00\x00\x00\x04\x00\x00\x00\x00\x00\x00\x00\x01\x00\x00\x00\x00\x00\x00\x00'
tbsS'finished'
p104
I00
sS'nReps'
p105
I1
sS'nRemaining'
p106
I15
sS'trialList'
p107
(lp108
g1
(g41
g42
(dp109
g44
Nsg45
I1
sg46
Vapple
p110
sg48
g110
sg49
I1
sg50
I1
sg51
Vapple.jpg
p111
sg53
g110
sg54
g110
stRp112
ag1
(g41
g42
(dp113
g44
Nsg45
I2
sg46
g110
sg48
g47
sg49
I-1
sg50
I1
sg51
g52
sg53
g47
sg54
g110
stRp114
ag1
(g41
g42
(dp115
g44
Nsg45
I3
sg46
g110
sg48
Vwood
p116
sg49
I0
sg50
I1
sg51
Vwood.jpg
p117
sg53
g116
sg54
g110
stRp118
ag1
(g41
g42
(dp119
g44
Nsg45
I4
sg46
g110
sg48
Vpencil
p120
sg49
I0
sg50
I1
sg51
Vpencil.jpg
p121
sg53
g120
sg54
g110
stRp122
ag1
(g41
g42
(dp123
g44
Nsg45
I5
sg46
g47
sg48
g110
sg49
I-1
sg50
I2
sg51
g111
sg53
g110
sg54
g47
stRp124
ag55
ag1
(g41
g42
(dp125
g44
Nsg45
I7
sg46
g47
sg48
g116
sg49
I0
sg50
I2
sg51
g117
sg53
g116
sg54
g47
stRp126
ag1
(g41
g42
(dp127
g44
Nsg45
I8
sg46
g47
sg48
g120
sg49
I0
sg50
I2
sg51
g121
sg53
g120
sg54
g47
stRp128
ag1
(g41
g42
(dp129
g44
Nsg45
I9
sg46
g116
sg48
g110
sg49
I0
sg50
I3
sg51
g111
sg53
g110
sg54
g116
stRp130
ag1
(g41
g42
(dp131
g44
Nsg45
I10
sg46
g116
sg48
g47
sg49
I0
sg50
I3
sg51
g52
sg53
g47
sg54
g116
stRp132
ag1
(g41
g42
(dp133
g44
Nsg45
I11
sg46
g116
sg48
g116
sg49
I1
sg50
I3
sg51
g117
sg53
g116
sg54
g116
stRp134
ag1
(g41
g42
(dp135
g44
Nsg45
I12
sg46
g116
sg48
g120
sg49
I-1
sg50
I3
sg51
g121
sg53
g120
sg54
g116
stRp136
ag1
(g41
g42
(dp137
g44
Nsg45
I13
sg46
g120
sg48
g110
sg49
I0
sg50
I4
sg51
g111
sg53
g110
sg54
g120
stRp138
ag1
(g41
g42
(dp139
g44
Nsg45
I14
sg46
g120
sg48
g47
sg49
I0
sg50
I4
sg51
g52
sg53
g47
sg54
g120
stRp140
ag1
(g41
g42
(dp141
g44
Nsg45
I15
sg46
g120
sg48
g116
sg49
I-1
sg50
I4
sg51
g117
sg53
g116
sg54
g120
stRp142
ag1
(g41
g42
(dp143
g44
Nsg45
I16
sg46
g120
sg48
g120
sg49
I1
sg50
I4
sg51
g121
sg53
g120
sg54
g120
stRp144
asS'seed'
p145
NsS'thisIndex'
p146
g25
(g103
S'\x05\x00\x00\x00\x00\x00\x00\x00'
tRp147
sS'thisN'
p148
I0
sS'thisTrialN'
p149
I0
sS'nTotal'
p150
I16
sS'_warnUseOfNext'
p151
I01
sbasS'saveWideText'
p152
I00
sS'thisEntry'
p153
(dp154
g18
F3.2215960025787354
sg17
S'2'
ssS'version'
p155
S''
sS'_paramNamesSoFar'
p156
(lp157
sS'entries'
p158
(lp159
(dp160
g30
g31
sg29
g12
sg32
g33
sg15
S'1'
sg22
g23
sg24
g28
sg16
F3.1560878753662109
sasS'loops'
p161
(lp162
g37
asS'savePickle'
p163
I00
sb.