ccopy_reg
_reconstructor
p1
(cpsychopy.data
ExperimentHandler
p2
c__builtin__
object
p3
NtRp4
(dp5
S'originPath'
p6
V/Users/nope/Desktop/psychopy_sample_lennart/sample_experiment.psyexp
p7
sS'dataFileName'
p8
V/Users/nope/Desktop/psychopy_sample_lennart/data/1_sample_experiment_2016_Dec_08_1516
p9
sS'runtimeInfo'
p10
NsS'name'
p11
Vsample_experiment
p12
sS'dataNames'
p13
(lp14
S'key_instruction.keys'
p15
aS'key_instruction.rt'
p16
asS'autoLog'
p17
I01
sS'extraInfo'
p18
(dp19
S'date'
p20
V2016_Dec_08_1516
p21
sS'frameRate'
p22
cnumpy.core.multiarray
scalar
p23
(cnumpy
dtype
p24
(S'f8'
I0
I1
tRp25
(I3
S'<'
NNNI-1
I-1
I0
tbS'\xd5\xe1\x15\xea\xb8\xc7M@'
tRp26
sS'expName'
p27
g12
sS'session'
p28
V001
p29
sS'participant'
p30
V1
ssS'loopsUnfinished'
p31
(lp32
g1
(cpsychopy.data
TrialHandler
p33
g3
NtRp34
(dp35
S'origin'
p36
NsS'thisTrial'
p37
g1
(cpsychopy.data
TrialType
p38
c__builtin__
dict
p39
(dp40
Vstim_name
p41
NsVstim_nr
p42
I5
sVcorrAns_odor
p43
I2
sVcorrAns_pic
p44
I1
sVcongruent
p45
I-1
sVodor_channel
p46
I2
sVpic_file
p47
Vapple.jpg
p48
sVpic_name
p49
Vapple
p50
sVodor_name
p51
Vstrawberry
p52
stRp53
sS'_exp'
p54
I4463302096
sg11
S'trials'
p55
sg6
I-1
sS'thisRepN'
p56
I0
sg17
I01
sg18
g19
sS'data'
p57
g1
(cpsychopy.data
DataHandler
p58
g39
(dp59
S'ran'
p60
cnumpy.ma.core
_mareconstruct
p61
(cnumpy.ma.core
MaskedArray
p62
cnumpy
ndarray
p63
(I0
tp64
S'b'
tRp65
(I1
(I16
I1
tg24
(S'f4'
I0
I1
tRp66
(I3
S'<'
NNNI-1
I-1
I0
tbI00
S'\x00\x00\x00\x00\x00\x00\x00\x00\x00\x00\x00\x00\x00\x00\x00\x00\x00\x00\x80?\x00\x00\x00\x00\x00\x00\x00\x00\x00\x00\x00\x00\x00\x00\x00\x00\x00\x00\x00\x00\x00\x00\x00\x00\x00\x00\x00\x00\x00\x00\x00\x00\x00\x00\x00\x00\x00\x00\x00\x00\x00\x00\x00\x00'
S'\x00\x00\x00\x00\x00\x00\x00\x00\x00\x00\x00\x00\x00\x00\x00\x00'
NtbsS'order'
p67
g61
(g62
g63
g64
S'b'
tRp68
(I1
(I16
I1
tg66
I00
S'\x00\x00\x00\x00\x00\x00\x00\x00\x00\x00\x00\x00\x00\x00\x00\x00\x00\x00\x00\x00\x00\x00\x00\x00\x00\x00\x00\x00\x00\x00\x00\x00\x00\x00\x00\x00\x00\x00\x00\x00\x00\x00\x00\x00\x00\x00\x00\x00\x00\x00\x00\x00\x00\x00\x00\x00\x00\x00\x00\x00\x00\x00\x00\x00'
S'\x01\x01\x01\x01\x00\x01\x01\x01\x01\x01\x01\x01\x01\x01\x01\x01'
NtbstRp69
(dp70
S'isNumeric'
p71
(dp72
g60
I01
sg67
I01
ssg55
g34
sS'dataTypes'
p73
(lp74
g60
ag67
asS'dataShape'
p75
(lp76
I16
aI1
asbsS'method'
p77
S'random'
p78
sS'sequenceIndices'
p79
cnumpy.core.multiarray
_reconstruct
p80
(g63
(I0
tS'b'
tRp81
(I1
(I16
I1
tg24
(S'i8'
I0
I1
tRp82
(I3
S'<'
NNNI-1
I-1
I0
tbI00
S'\x04\x00\x00\x00\x00\x00\x00\x00\x0e\x00\x00\x00\x00\x00\x00\x00\t\x00\x00\x00\x00\x00\x00\x00\x02\x00\x00\x00\x00\x00\x00\x00\r\x00\x00\x00\x00\x00\x00\x00\x0b\x00\x00\x00\x00\x00\x00\x00\x06\x00\x00\x00\x00\x00\x00\x00\x08\x00\x00\x00\x00\x00\x00\x00\x00\x00\x00\x00\x00\x00\x00\x00\x0f\x00\x00\x00\x00\x00\x00\x00\x03\x00\x00\x00\x00\x00\x00\x00\x01\x00\x00\x00\x00\x00\x00\x00\x0c\x00\x00\x00\x00\x00\x00\x00\x05\x00\x00\x00\x00\x00\x00\x00\x07\x00\x00\x00\x00\x00\x00\x00\n\x00\x00\x00\x00\x00\x00\x00'
tbsS'finished'
p83
I00
sS'nReps'
p84
I1
sS'nRemaining'
p85
I15
sS'trialList'
p86
(lp87
g1
(g38
g39
(dp88
g41
Nsg42
I1
sg43
I1
sg44
I1
sg45
I1
sg46
I1
sg47
g48
sg49
g50
sg51
g50
stRp89
ag1
(g38
g39
(dp90
g41
Nsg42
I2
sg43
I1
sg44
I2
sg45
I-1
sg46
I1
sg47
Vstrawberry.jpg
p91
sg49
g52
sg51
g50
stRp92
ag1
(g38
g39
(dp93
g41
Nsg42
I3
sg43
I1
sg44
I3
sg45
I0
sg46
I1
sg47
Vwood.jpg
p94
sg49
Vwood
p95
sg51
g50
stRp96
ag1
(g38
g39
(dp97
g41
Nsg42
I4
sg43
I1
sg44
I4
sg45
I0
sg46
I1
sg47
Vpencil.jpg
p98
sg49
Vpencil
p99
sg51
g50
stRp100
ag53
ag1
(g38
g39
(dp101
g41
Nsg42
I6
sg43
I2
sg44
I2
sg45
I1
sg46
I2
sg47
g91
sg49
g52
sg51
g52
stRp102
ag1
(g38
g39
(dp103
g41
Nsg42
I7
sg43
I2
sg44
I3
sg45
I0
sg46
I2
sg47
g94
sg49
g95
sg51
g52
stRp104
ag1
(g38
g39
(dp105
g41
Nsg42
I8
sg43
I2
sg44
I4
sg45
I0
sg46
I2
sg47
g98
sg49
g99
sg51
g52
stRp106
ag1
(g38
g39
(dp107
g41
Nsg42
I9
sg43
I3
sg44
I1
sg45
I0
sg46
I3
sg47
g48
sg49
g50
sg51
g95
stRp108
ag1
(g38
g39
(dp109
g41
Nsg42
I10
sg43
I3
sg44
I2
sg45
I0
sg46
I3
sg47
g91
sg49
g52
sg51
g95
stRp110
ag1
(g38
g39
(dp111
g41
Nsg42
I11
sg43
I3
sg44
I3
sg45
I1
sg46
I3
sg47
g94
sg49
g95
sg51
g95
stRp112
ag1
(g38
g39
(dp113
g41
Nsg42
I12
sg43
I3
sg44
I4
sg45
I-1
sg46
I3
sg47
g98
sg49
g99
sg51
g95
stRp114
ag1
(g38
g39
(dp115
g41
Nsg42
I13
sg43
I4
sg44
I1
sg45
I0
sg46
I4
sg47
g48
sg49
g50
sg51
g99
stRp116
ag1
(g38
g39
(dp117
g41
Nsg42
I14
sg43
I4
sg44
I2
sg45
I0
sg46
I4
sg47
g91
sg49
g52
sg51
g99
stRp118
ag1
(g38
g39
(dp119
g41
Nsg42
I15
sg43
I4
sg44
I3
sg45
I-1
sg46
I4
sg47
g94
sg49
g95
sg51
g99
stRp120
ag1
(g38
g39
(dp121
g41
Nsg42
I16
sg43
I4
sg44
I4
sg45
I1
sg46
I4
sg47
g98
sg49
g99
sg51
g99
stRp122
asS'seed'
p123
NsS'thisIndex'
p124
g23
(g82
S'\x04\x00\x00\x00\x00\x00\x00\x00'
tRp125
sS'thisN'
p126
I0
sS'thisTrialN'
p127
I0
sS'nTotal'
p128
I16
sS'_warnUseOfNext'
p129
I01
sbasS'saveWideText'
p130
I00
sS'thisEntry'
p131
(dp132
sS'version'
p133
S''
sS'_paramNamesSoFar'
p134
(lp135
sS'entries'
p136
(lp137
(dp138
g28
g29
sg27
g12
sg30
V1
sg15
S'2'
sg20
g21
sg22
g26
sg16
F0.98772907257080078
sasS'loops'
p139
(lp140
g34
asS'savePickle'
p141
I00
sb.